Certificate:
    Data:
        Version: 3 (0x2)
        Serial Number: 4097 (0x1001)
    Signature Algorithm: sha1WithRSAEncryption
        Issuer: C=SE, ST=Stockholm, L=Stockholm, O=Kth, OU=Kth, CN=Kth/emailAddress=avneesh@kth.se
        Validity
            Not Before: Dec  6 21:14:01 2016 GMT
            Not After : Dec  6 21:14:01 2017 GMT
        Subject: C=SE, ST=Stockholm, L=Stockholm, O=Kth, OU=Kth, CN=Kth/emailAddress=avneesh@kth.se
        Subject Public Key Info:
            Public Key Algorithm: rsaEncryption
                Public-Key: (1024 bit)
                Modulus:
                    00:b4:a1:a6:1b:aa:a9:64:b5:26:29:e4:30:b9:32:
                    50:90:ca:c8:62:71:43:ca:91:7a:d3:e0:07:98:01:
                    85:11:10:f1:1d:f4:b5:c4:9a:86:f0:c9:e7:25:63:
                    cf:b6:f0:4f:00:b3:dd:10:4a:cc:2d:37:87:81:a6:
                    dc:63:61:c1:d4:a9:58:3f:2f:a5:d8:42:44:13:1e:
                    41:98:ae:06:09:7b:00:c8:4a:08:10:74:e8:d0:39:
                    2d:fc:56:7e:2b:24:5a:3d:ae:e4:1c:77:94:b3:74:
                    5c:de:fd:99:d4:ad:e3:d8:f0:64:31:d0:9c:44:53:
                    0c:e6:30:d8:12:4e:fd:99:8d
                Exponent: 65537 (0x10001)
        X509v3 extensions:
            X509v3 Basic Constraints: 
                CA:FALSE
            Netscape Comment: 
                OpenSSL Generated Certificate
            X509v3 Subject Key Identifier: 
                FD:B8:DC:3B:F8:6F:B6:EC:20:23:90:3A:E6:F8:FC:BA:45:EA:B5:54
            X509v3 Authority Key Identifier: 
                keyid:7B:1F:64:BA:88:B6:0E:22:29:28:BD:47:82:D0:CF:D6:D8:36:9A:F7

    Signature Algorithm: sha1WithRSAEncryption
         7d:0a:54:39:6a:87:e8:a9:3a:b6:2e:ec:68:a1:24:45:7c:f5:
         b5:3d:36:07:4d:2e:10:3f:c5:b7:a5:cf:c6:f7:63:17:24:d6:
         3c:16:9d:42:d2:1c:0c:53:51:e0:4f:54:74:c1:2e:2f:e7:b4:
         00:46:a5:03:f1:e0:eb:c9:70:7a:c5:4c:01:b1:d9:58:ba:0a:
         95:27:ab:6a:db:a0:b5:dc:20:cf:2b:b8:c3:89:4d:55:db:95:
         d0:10:66:17:51:8f:14:1f:c7:f1:d1:0a:34:b7:0a:8e:5d:2d:
         fb:7f:33:43:1c:ee:96:c7:09:a9:56:57:04:b1:bd:9c:3c:c1:
         22:f8
-----BEGIN CERTIFICATE-----
MIIC7jCCAlegAwIBAgICEAEwDQYJKoZIhvcNAQEFBQAwfjELMAkGA1UEBhMCU0Ux
EjAQBgNVBAgMCVN0b2NraG9sbTESMBAGA1UEBwwJU3RvY2tob2xtMQwwCgYDVQQK
DANLdGgxDDAKBgNVBAsMA0t0aDEMMAoGA1UEAwwDS3RoMR0wGwYJKoZIhvcNAQkB
Fg5hdm5lZXNoQGt0aC5zZTAeFw0xNjEyMDYyMTE0MDFaFw0xNzEyMDYyMTE0MDFa
MH4xCzAJBgNVBAYTAlNFMRIwEAYDVQQIDAlTdG9ja2hvbG0xEjAQBgNVBAcMCVN0
b2NraG9sbTEMMAoGA1UECgwDS3RoMQwwCgYDVQQLDANLdGgxDDAKBgNVBAMMA0t0
aDEdMBsGCSqGSIb3DQEJARYOYXZuZWVzaEBrdGguc2UwgZ8wDQYJKoZIhvcNAQEB
BQADgY0AMIGJAoGBALShphuqqWS1JinkMLkyUJDKyGJxQ8qRetPgB5gBhREQ8R30
tcSahvDJ5yVjz7bwTwCz3RBKzC03h4Gm3GNhwdSpWD8vpdhCRBMeQZiuBgl7AMhK
CBB06NA5LfxWfiskWj2u5Bx3lLN0XN79mdSt49jwZDHQnERTDOYw2BJO/ZmNAgMB
AAGjezB5MAkGA1UdEwQCMAAwLAYJYIZIAYb4QgENBB8WHU9wZW5TU0wgR2VuZXJh
dGVkIENlcnRpZmljYXRlMB0GA1UdDgQWBBT9uNw7+G+27CAjkDrm+Py6Req1VDAf
BgNVHSMEGDAWgBR7H2S6iLYOIikovUeC0M/W2Daa9zANBgkqhkiG9w0BAQUFAAOB
gQB9ClQ5aofoqTq2LuxooSRFfPW1PTYHTS4QP8W3pc/G92MXJNY8Fp1C0hwMU1Hg
T1R0wS4v57QARqUD8eDryXB6xUwBsdlYugqVJ6tq26C13CDPK7jDiU1V25XQEGYX
UY8UH8fx0Qo0twqOXS37fzNDHO6WxwmpVlcEsb2cPMEi+A==
-----END CERTIFICATE-----
